target datalayout = "e-m:e-p270:32:32-p271:32:32-p272:64:64-i64:64-i128:128-f80:128-n8:16:32:64-S128"
target triple = "x86_64-pc-linux-gnu"

%struct.Pdr_Man_t_ = type { ptr, ptr, ptr, ptr, ptr, ptr, ptr, ptr, %struct.Vec_Ptr_t_, ptr, i32, i32, ptr, ptr, ptr, ptr, ptr, ptr, i32, i32, ptr, ptr, ptr, i32, i32, ptr, ptr, ptr, ptr, ptr, ptr, ptr, ptr, ptr, ptr, ptr, ptr, ptr, ptr, i32, i32, i32, i32, i32, i32, i32, i32, i32, i32, i32, i32, i32, i32, i32, i32, i32, i64, i64, i64, i64, i64, i64, i64, i64, i64, i64, i64, i64 }
%struct.Vec_Ptr_t_ = type { i32, i32, ptr }
%struct.Pdr_Par_t_ = type { i32, i32, i32, i32, i32, i32, i32, i32, i32, i32, i32, i32, i32, i32, i32, i32, i32, i32, i32, i32, i32, i32, i32, i32, i32, i32, i32, i32, i32, i32, i32, i32, i32, i32, i32, i32, i32, i32, ptr, ptr, i64, ptr, ptr }
%struct.Aig_Man_t_ = type { ptr, ptr, ptr, ptr, ptr, ptr, ptr, %struct.Aig_Obj_t_, i32, i32, i32, i32, i32, i32, [7 x i32], i32, ptr, i32, ptr, i32, ptr, i32, i32, i32, ptr, i32, i32, i32, i32, i32, ptr, ptr, i32, ptr, ptr, i32, ptr, ptr, i32, i32, i32, ptr, ptr, ptr, ptr, ptr, ptr, ptr, ptr, ptr, ptr, ptr, ptr, ptr, ptr, i32, ptr, ptr, ptr, ptr, i32, i64, i64, i64, ptr, ptr }
%struct.Aig_Obj_t_ = type { %union.anon, ptr, ptr, i64, i32, i32, %union.anon.0 }
%union.anon = type { ptr }
%union.anon.0 = type { ptr }
%struct.Vec_Int_t_ = type { i32, i32, ptr }
%struct.sat_solver_t = type { i32, i32, i32, i32, %struct.Sat_Mem_t_, i32, i32, ptr, ptr, i32, i32, i32, i32, i32, i64, i64, i64, ptr, ptr, i32, i32, %struct.veci_t, ptr, i32, ptr, ptr, ptr, ptr, ptr, ptr, ptr, ptr, %struct.veci_t, %struct.veci_t, %struct.veci_t, %struct.veci_t, ptr, %struct.veci_t, i32, i32, i32, double, double, i32, i32, i32, %struct.stats_t, i32, i32, i32, i32, i32, i64, i64, i64, %struct.veci_t, ptr, i32, i32, i32, %struct.veci_t, %struct.veci_t, i32, i32, i32, ptr, ptr, i32, ptr, i32, i32, %struct.veci_t, %struct.veci_t, %struct.veci_t, ptr, ptr, i32, ptr }
%struct.Sat_Mem_t_ = type { [2 x i32], [2 x i32], [2 x i32], [2 x i32], i32, i32, i32, i32, ptr }
%struct.stats_t = type { i32, i32, i32, i64, i64, i64, i64, i64, i64, i64 }
%struct.veci_t = type { i32, i32, ptr }

; Function Attrs: nounwind uwtable
define internal void @sat_solver_compress(ptr noundef %0) #0 {
  %2 = alloca ptr, align 8
  %3 = alloca i32, align 4
  store ptr %0, ptr %2, align 8
  %4 = load ptr, ptr %2, align 8
  %5 = getelementptr inbounds %struct.sat_solver_t, ptr %4, i32 0, i32 3
  %6 = load i32, ptr %5, align 4
  %7 = load ptr, ptr %2, align 8
  %8 = getelementptr inbounds %struct.sat_solver_t, ptr %7, i32 0, i32 2
  %9 = load i32, ptr %8, align 8
  %10 = icmp ne i32 %6, %9
  br i1 %10, label %11, label %14

11:                                               ; preds = %1
  %12 = load ptr, ptr %2, align 8
  %13 = call i32 @sat_solver_simplify(ptr noundef %12)
  store i32 %13, ptr %3, align 4
  br label %14

14:                                               ; preds = %11, %1
  ret void
}

; Function Attrs: nounwind uwtable
define internal i32 @Abc_Var2Lit(i32 noundef %0, i32 noundef %1) #0 {
  %3 = alloca i32, align 4
  %4 = alloca i32, align 4
  store i32 %0, ptr %3, align 4
  store i32 %1, ptr %4, align 4
  %5 = load i32, ptr %3, align 4
  %6 = load i32, ptr %3, align 4
  %7 = add nsw i32 %5, %6
  %8 = load i32, ptr %4, align 4
  %9 = add nsw i32 %7, %8
  ret i32 %9
}

; Function Attrs: nounwind uwtable
define internal i32 @Vec_IntEntry(ptr noundef %0, i32 noundef %1) #0 {
  %3 = alloca ptr, align 8
  %4 = alloca i32, align 4
  store ptr %0, ptr %3, align 8
  store i32 %1, ptr %4, align 4
  %5 = load ptr, ptr %3, align 8
  %6 = getelementptr inbounds %struct.Vec_Int_t_, ptr %5, i32 0, i32 2
  %7 = load ptr, ptr %6, align 8
  %8 = load i32, ptr %4, align 4
  %9 = sext i32 %8 to i64
  %10 = getelementptr inbounds i32, ptr %7, i64 %9
  %11 = load i32, ptr %10, align 4
  ret i32 %11
}

; Function Attrs: nounwind uwtable
define internal ptr @Vec_PtrEntry(ptr noundef %0, i32 noundef %1) #0 {
  %3 = alloca ptr, align 8
  %4 = alloca i32, align 4
  store ptr %0, ptr %3, align 8
  store i32 %1, ptr %4, align 4
  %5 = load ptr, ptr %3, align 8
  %6 = getelementptr inbounds %struct.Vec_Ptr_t_, ptr %5, i32 0, i32 2
  %7 = load ptr, ptr %6, align 8
  %8 = load i32, ptr %4, align 4
  %9 = sext i32 %8 to i64
  %10 = getelementptr inbounds ptr, ptr %7, i64 %9
  %11 = load ptr, ptr %10, align 8
  ret ptr %11
}

; Function Attrs: nounwind uwtable
define internal i32 @Saig_ManPoNum(ptr noundef %0) #0 {
  %2 = alloca ptr, align 8
  store ptr %0, ptr %2, align 8
  %3 = load ptr, ptr %2, align 8
  %4 = getelementptr inbounds %struct.Aig_Man_t_, ptr %3, i32 0, i32 10
  %5 = load i32, ptr %4, align 8
  ret i32 %5
}

; Function Attrs: nounwind uwtable
define internal ptr @Pdr_ManSolver(ptr noundef %0, i32 noundef %1) #0 {
  %3 = alloca ptr, align 8
  %4 = alloca i32, align 4
  store ptr %0, ptr %3, align 8
  store i32 %1, ptr %4, align 4
  %5 = load ptr, ptr %3, align 8
  %6 = getelementptr inbounds %struct.Pdr_Man_t_, ptr %5, i32 0, i32 13
  %7 = load ptr, ptr %6, align 8
  %8 = load i32, ptr %4, align 4
  %9 = call ptr @Vec_PtrEntry(ptr noundef %7, i32 noundef %8)
  ret ptr %9
}

; Function Attrs: nounwind uwtable
define void @Pdr_ManSetPropertyOutput(ptr noundef %0, i32 noundef %1) #0 {
  %3 = alloca ptr, align 8
  %4 = alloca i32, align 4
  %5 = alloca ptr, align 8
  %6 = alloca ptr, align 8
  %7 = alloca i32, align 4
  %8 = alloca i32, align 4
  %9 = alloca i32, align 4
  store ptr %0, ptr %3, align 8
  store i32 %1, ptr %4, align 4
  %10 = load ptr, ptr %3, align 8
  %11 = getelementptr inbounds %struct.Pdr_Man_t_, ptr %10, i32 0, i32 0
  %12 = load ptr, ptr %11, align 8
  %13 = getelementptr inbounds %struct.Pdr_Par_t_, ptr %12, i32 0, i32 32
  %14 = load i32, ptr %13, align 8
  %15 = icmp ne i32 %14, 0
  br i1 %15, label %17, label %16

16:                                               ; preds = %2
  br label %82

17:                                               ; preds = %2
  %18 = load ptr, ptr %3, align 8
  %19 = load i32, ptr %4, align 4
  %20 = call ptr @Pdr_ManSolver(ptr noundef %18, i32 noundef %19)
  store ptr %20, ptr %5, align 8
  store i32 0, ptr %9, align 4
  br label %21

21:                                               ; preds = %77, %17
  %22 = load i32, ptr %9, align 4
  %23 = load ptr, ptr %3, align 8
  %24 = getelementptr inbounds %struct.Pdr_Man_t_, ptr %23, i32 0, i32 1
  %25 = load ptr, ptr %24, align 8
  %26 = call i32 @Saig_ManPoNum(ptr noundef %25)
  %27 = icmp slt i32 %22, %26
  br i1 %27, label %28, label %36

28:                                               ; preds = %21
  %29 = load ptr, ptr %3, align 8
  %30 = getelementptr inbounds %struct.Pdr_Man_t_, ptr %29, i32 0, i32 1
  %31 = load ptr, ptr %30, align 8
  %32 = getelementptr inbounds %struct.Aig_Man_t_, ptr %31, i32 0, i32 3
  %33 = load ptr, ptr %32, align 8
  %34 = load i32, ptr %9, align 4
  %35 = call ptr @Vec_PtrEntry(ptr noundef %33, i32 noundef %34)
  store ptr %35, ptr %6, align 8
  br label %36

36:                                               ; preds = %28, %21
  %37 = phi i1 [ false, %21 ], [ true, %28 ]
  br i1 %37, label %38, label %80

38:                                               ; preds = %36
  %39 = load ptr, ptr %3, align 8
  %40 = getelementptr inbounds %struct.Pdr_Man_t_, ptr %39, i32 0, i32 12
  %41 = load ptr, ptr %40, align 8
  %42 = icmp ne ptr %41, null
  br i1 %42, label %43, label %51

43:                                               ; preds = %38
  %44 = load ptr, ptr %3, align 8
  %45 = getelementptr inbounds %struct.Pdr_Man_t_, ptr %44, i32 0, i32 12
  %46 = load ptr, ptr %45, align 8
  %47 = load i32, ptr %9, align 4
  %48 = call ptr @Vec_PtrEntry(ptr noundef %46, i32 noundef %47)
  %49 = icmp ne ptr %48, null
  br i1 %49, label %50, label %51

50:                                               ; preds = %43
  br label %77

51:                                               ; preds = %43, %38
  %52 = load ptr, ptr %3, align 8
  %53 = getelementptr inbounds %struct.Pdr_Man_t_, ptr %52, i32 0, i32 0
  %54 = load ptr, ptr %53, align 8
  %55 = getelementptr inbounds %struct.Pdr_Par_t_, ptr %54, i32 0, i32 41
  %56 = load ptr, ptr %55, align 8
  %57 = icmp ne ptr %56, null
  br i1 %57, label %58, label %68

58:                                               ; preds = %51
  %59 = load ptr, ptr %3, align 8
  %60 = getelementptr inbounds %struct.Pdr_Man_t_, ptr %59, i32 0, i32 0
  %61 = load ptr, ptr %60, align 8
  %62 = getelementptr inbounds %struct.Pdr_Par_t_, ptr %61, i32 0, i32 41
  %63 = load ptr, ptr %62, align 8
  %64 = load i32, ptr %9, align 4
  %65 = call i32 @Vec_IntEntry(ptr noundef %63, i32 noundef %64)
  %66 = icmp eq i32 %65, -1
  br i1 %66, label %67, label %68

67:                                               ; preds = %58
  br label %77

68:                                               ; preds = %58, %51
  %69 = load ptr, ptr %3, align 8
  %70 = load i32, ptr %4, align 4
  %71 = load ptr, ptr %6, align 8
  %72 = call i32 @Pdr_ObjSatVar(ptr noundef %69, i32 noundef %70, i32 noundef 1, ptr noundef %71)
  %73 = call i32 @Abc_Var2Lit(i32 noundef %72, i32 noundef 1)
  store i32 %73, ptr %7, align 4
  %74 = load ptr, ptr %5, align 8
  %75 = getelementptr inbounds i32, ptr %7, i64 1
  %76 = call i32 @sat_solver_addclause(ptr noundef %74, ptr noundef %7, ptr noundef %75)
  store i32 %76, ptr %8, align 4
  br label %77

77:                                               ; preds = %68, %67, %50
  %78 = load i32, ptr %9, align 4
  %79 = add nsw i32 %78, 1
  store i32 %79, ptr %9, align 4
  br label %21, !llvm.loop !9

80:                                               ; preds = %36
  %81 = load ptr, ptr %5, align 8
  call void @sat_solver_compress(ptr noundef %81)
  br label %82

82:                                               ; preds = %80, %16
  ret void
}