; Function Attrs: nounwind uwtable
define void @Pdr_ManSetPropertyOutput(ptr noundef %0, i32 noundef %1) local_unnamed_addr #0 {
  %3 = alloca i32, align 4
  %4 = load ptr, ptr %0, align 8
  %5 = getelementptr inbounds nuw i8, ptr %4, i64 128
  %6 = load i32, ptr %5, align 8
  %.not = icmp eq i32 %6, 0
  br i1 %.not, label %sat_solver_compress.exit, label %7

7:                                                ; preds = %2
  %8 = getelementptr i8, ptr %0, i64 104
  %.val25 = load ptr, ptr %8, align 8
  %9 = getelementptr i8, ptr %.val25, i64 8
  %.val25.val = load ptr, ptr %9, align 8
  %10 = sext i32 %1 to i64
  %11 = getelementptr inbounds ptr, ptr %.val25.val, i64 %10
  %12 = load ptr, ptr %11, align 8
  %13 = getelementptr inbounds nuw i8, ptr %0, i64 8
  %14 = load ptr, ptr %13, align 8
  %15 = getelementptr i8, ptr %14, i64 112
  %.val27 = load i32, ptr %15, align 8
  %16 = icmp sgt i32 %.val27, 0
  br i1 %16, label %.lr.ph, label %.critedge

.lr.ph:                                           ; preds = %7
  %17 = getelementptr inbounds nuw i8, ptr %0, i64 96
  %18 = getelementptr inbounds nuw i8, ptr %3, i64 4
  br label %19

19:                                               ; preds = %.lr.ph, %45
  %20 = phi ptr [ %14, %.lr.ph ], [ %46, %45 ]
  %indvars.iv = phi i64 [ 0, %.lr.ph ], [ %indvars.iv.next, %45 ]
  %21 = getelementptr inbounds nuw i8, ptr %20, i64 24
  %22 = load ptr, ptr %21, align 8
  %23 = getelementptr i8, ptr %22, i64 8
  %.val24 = load ptr, ptr %23, align 8
  %24 = getelementptr inbounds nuw ptr, ptr %.val24, i64 %indvars.iv
  %25 = load ptr, ptr %24, align 8
  %26 = load ptr, ptr %17, align 8
  %.not20 = icmp eq ptr %26, null
  br i1 %.not20, label %31, label %27

27:                                               ; preds = %19
  %28 = getelementptr i8, ptr %26, i64 8
  %.val23 = load ptr, ptr %28, align 8
  %29 = getelementptr inbounds nuw ptr, ptr %.val23, i64 %indvars.iv
  %30 = load ptr, ptr %29, align 8
  %.not21 = icmp eq ptr %30, null
  br i1 %.not21, label %31, label %45

31:                                               ; preds = %27, %19
  %32 = load ptr, ptr %0, align 8
  %33 = getelementptr inbounds nuw i8, ptr %32, i64 176
  %34 = load ptr, ptr %33, align 8
  %.not22 = icmp eq ptr %34, null
  br i1 %.not22, label %40, label %35

35:                                               ; preds = %31
  %36 = getelementptr i8, ptr %34, i64 8
  %.val26 = load ptr, ptr %36, align 8
  %37 = getelementptr inbounds nuw i32, ptr %.val26, i64 %indvars.iv
  %38 = load i32, ptr %37, align 4
  %39 = icmp eq i32 %38, -1
  br i1 %39, label %45, label %40

40:                                               ; preds = %35, %31
  %41 = call i32 @Pdr_ObjSatVar(ptr noundef nonnull %0, i32 noundef %1, i32 noundef 1, ptr noundef %25) #8
  %42 = shl nsw i32 %41, 1
  %43 = or disjoint i32 %42, 1
  store i32 %43, ptr %3, align 4
  %44 = call i32 @sat_solver_addclause(ptr noundef %12, ptr noundef nonnull %3, ptr noundef nonnull %18) #8
  %.pre = load ptr, ptr %13, align 8
  br label %45

45:                                               ; preds = %35, %27, %40
  %46 = phi ptr [ %20, %35 ], [ %20, %27 ], [ %.pre, %40 ]
  %indvars.iv.next = add nuw nsw i64 %indvars.iv, 1
  %47 = getelementptr i8, ptr %46, i64 112
  %.val = load i32, ptr %47, align 8
  %48 = sext i32 %.val to i64
  %49 = icmp slt i64 %indvars.iv.next, %48
  br i1 %49, label %19, label %.critedge, !llvm.loop !9

.critedge:                                        ; preds = %45, %7
  %50 = getelementptr inbounds nuw i8, ptr %12, i64 12
  %51 = load i32, ptr %50, align 4
  %52 = getelementptr inbounds nuw i8, ptr %12, i64 8
  %53 = load i32, ptr %52, align 8
  %.not.i = icmp eq i32 %51, %53
  br i1 %.not.i, label %sat_solver_compress.exit, label %54

54:                                               ; preds = %.critedge
  %55 = call i32 @sat_solver_simplify(ptr noundef nonnull %12) #8
  br label %sat_solver_compress.exit

sat_solver_compress.exit:                         ; preds = %54, %.critedge, %2
  ret void
}